; Function Attrs: mustprogress nounwind uwtable
define { ptr, i32 } @_ZN5boost8charconv17from_chars_erangeENS_4core17basic_string_viewIcEERfNS0_12chars_formatE(ptr %0, i64 %1, ptr noundef nonnull align 4 dereferenceable(4) %2, i32 noundef %3) local_unnamed_addr #0 personality ptr @__gxx_personality_v0 {
  %5 = getelementptr inbounds nuw i8, ptr %0, i64 %1
  %.not.i = icmp eq i32 %3, 4
  br i1 %.not.i, label %8, label %6

6:                                                ; preds = %4
  %.sroa.0.0.insert.ext.i.i = zext i32 %3 to i64
  %.sroa.0.0.insert.insert.i.i = or disjoint i64 %.sroa.0.0.insert.ext.i.i, 197568495616
  %7 = tail call { ptr, i32 } @_ZN5boost8charconv6detail10fast_float19from_chars_advancedIfcEENS0_19from_chars_result_tIT0_EEPKS5_S8_RT_NS2_15parse_options_tIS5_EE(ptr noundef %0, ptr noundef %5, ptr noundef nonnull align 4 dereferenceable(4) %2, i64 %.sroa.0.0.insert.insert.i.i) #13
  br label %_ZN5boost8charconv17from_chars_erangeEPKcS2_RfNS0_12chars_formatE.exit

8:                                                ; preds = %4
  %9 = tail call { ptr, i32 } @_ZN5boost8charconv6detail21from_chars_float_implIfEENS0_19from_chars_result_tIcEEPKcS6_RT_NS0_12chars_formatE(ptr noundef %0, ptr noundef %5, ptr noundef nonnull align 4 dereferenceable(4) %2, i32 noundef 4) #13
  br label %_ZN5boost8charconv17from_chars_erangeEPKcS2_RfNS0_12chars_formatE.exit

_ZN5boost8charconv17from_chars_erangeEPKcS2_RfNS0_12chars_formatE.exit: ; preds = %6, %8
  %.pn.i = phi { ptr, i32 } [ %7, %6 ], [ %9, %8 ]
  ret { ptr, i32 } %.pn.i
}